target datalayout = "e-m:e-p270:32:32-p271:32:32-p272:64:64-i64:64-i128:128-f80:128-n8:16:32:64-S128"
target triple = "x86_64-pc-linux-gnu"

%struct.ARKodeSPRKTableMem = type { i32, i32, ptr, ptr }

; Function Attrs: nounwind uwtable
define void @ARKodeSPRKTable_Free(ptr noundef %0) #0 {
  %2 = alloca ptr, align 8
  store ptr %0, ptr %2, align 8, !tbaa !10
  %3 = load ptr, ptr %2, align 8, !tbaa !10
  %4 = icmp ne ptr %3, null
  br i1 %4, label %5, label %25

5:                                                ; preds = %1
  %6 = load ptr, ptr %2, align 8, !tbaa !10
  %7 = getelementptr inbounds nuw %struct.ARKodeSPRKTableMem, ptr %6, i32 0, i32 3
  %8 = load ptr, ptr %7, align 8, !tbaa !18
  %9 = icmp ne ptr %8, null
  br i1 %9, label %10, label %14

10:                                               ; preds = %5
  %11 = load ptr, ptr %2, align 8, !tbaa !10
  %12 = getelementptr inbounds nuw %struct.ARKodeSPRKTableMem, ptr %11, i32 0, i32 3
  %13 = load ptr, ptr %12, align 8, !tbaa !18
  call void @free(ptr noundef %13) #8
  br label %14

14:                                               ; preds = %10, %5
  %15 = load ptr, ptr %2, align 8, !tbaa !10
  %16 = getelementptr inbounds nuw %struct.ARKodeSPRKTableMem, ptr %15, i32 0, i32 2
  %17 = load ptr, ptr %16, align 8, !tbaa !17
  %18 = icmp ne ptr %17, null
  br i1 %18, label %19, label %23

19:                                               ; preds = %14
  %20 = load ptr, ptr %2, align 8, !tbaa !10
  %21 = getelementptr inbounds nuw %struct.ARKodeSPRKTableMem, ptr %20, i32 0, i32 2
  %22 = load ptr, ptr %21, align 8, !tbaa !17
  call void @free(ptr noundef %22) #8
  br label %23

23:                                               ; preds = %19, %14
  %24 = load ptr, ptr %2, align 8, !tbaa !10
  call void @free(ptr noundef %24) #8
  br label %25

25:                                               ; preds = %23, %1
  ret void
}

; Function Attrs: nounwind uwtable
define ptr @ARKodeSPRKTable_Alloc(i32 noundef %0) #0 {
  %2 = alloca ptr, align 8
  %3 = alloca i32, align 4
  %4 = alloca ptr, align 8
  %5 = alloca i32, align 4
  store i32 %0, ptr %3, align 4, !tbaa !3
  call void @llvm.lifetime.start.p0(i64 8, ptr %4) #8
  store ptr null, ptr %4, align 8, !tbaa !10
  %6 = call noalias ptr @malloc(i64 noundef 24) #9
  store ptr %6, ptr %4, align 8, !tbaa !10
  %7 = load ptr, ptr %4, align 8, !tbaa !10
  %8 = icmp ne ptr %7, null
  br i1 %8, label %10, label %9

9:                                                ; preds = %1
  store ptr null, ptr %2, align 8
  store i32 1, ptr %5, align 4
  br label %42

10:                                               ; preds = %1
  %11 = load ptr, ptr %4, align 8, !tbaa !10
  call void @llvm.memset.p0.i64(ptr align 8 %11, i8 0, i64 24, i1 false)
  %12 = load i32, ptr %3, align 4, !tbaa !3
  %13 = sext i32 %12 to i64
  %14 = mul i64 %13, 8
  %15 = call noalias ptr @malloc(i64 noundef %14) #9
  %16 = load ptr, ptr %4, align 8, !tbaa !10
  %17 = getelementptr inbounds nuw %struct.ARKodeSPRKTableMem, ptr %16, i32 0, i32 3
  store ptr %15, ptr %17, align 8, !tbaa !18
  %18 = load ptr, ptr %4, align 8, !tbaa !10
  %19 = getelementptr inbounds nuw %struct.ARKodeSPRKTableMem, ptr %18, i32 0, i32 3
  %20 = load ptr, ptr %19, align 8, !tbaa !18
  %21 = icmp ne ptr %20, null
  br i1 %21, label %24, label %22

22:                                               ; preds = %10
  %23 = load ptr, ptr %4, align 8, !tbaa !10
  call void @ARKodeSPRKTable_Free(ptr noundef %23)
  store ptr null, ptr %2, align 8
  store i32 1, ptr %5, align 4
  br label %42

24:                                               ; preds = %10
  %25 = load i32, ptr %3, align 4, !tbaa !3
  %26 = sext i32 %25 to i64
  %27 = mul i64 %26, 8
  %28 = call noalias ptr @malloc(i64 noundef %27) #9
  %29 = load ptr, ptr %4, align 8, !tbaa !10
  %30 = getelementptr inbounds nuw %struct.ARKodeSPRKTableMem, ptr %29, i32 0, i32 2
  store ptr %28, ptr %30, align 8, !tbaa !17
  %31 = load ptr, ptr %4, align 8, !tbaa !10
  %32 = getelementptr inbounds nuw %struct.ARKodeSPRKTableMem, ptr %31, i32 0, i32 2
  %33 = load ptr, ptr %32, align 8, !tbaa !17
  %34 = icmp ne ptr %33, null
  br i1 %34, label %37, label %35

35:                                               ; preds = %24
  %36 = load ptr, ptr %4, align 8, !tbaa !10
  call void @ARKodeSPRKTable_Free(ptr noundef %36)
  store ptr null, ptr %2, align 8
  store i32 1, ptr %5, align 4
  br label %42

37:                                               ; preds = %24
  %38 = load i32, ptr %3, align 4, !tbaa !3
  %39 = load ptr, ptr %4, align 8, !tbaa !10
  %40 = getelementptr inbounds nuw %struct.ARKodeSPRKTableMem, ptr %39, i32 0, i32 1
  store i32 %38, ptr %40, align 4, !tbaa !12
  %41 = load ptr, ptr %4, align 8, !tbaa !10
  store ptr %41, ptr %2, align 8
  store i32 1, ptr %5, align 4
  br label %42

42:                                               ; preds = %37, %35, %22, %9
  call void @llvm.lifetime.end.p0(i64 8, ptr %4) #8
  %43 = load ptr, ptr %2, align 8
  ret ptr %43
}

; Function Attrs: nounwind uwtable
define internal ptr @arkodeSymplecticRuth3() #0 {
  %1 = alloca ptr, align 8
  %2 = alloca ptr, align 8
  %3 = alloca i32, align 4
  call void @llvm.lifetime.start.p0(i64 8, ptr %2) #8
  %4 = call ptr @ARKodeSPRKTable_Alloc(i32 noundef 3)
  store ptr %4, ptr %2, align 8, !tbaa !10
  %5 = load ptr, ptr %2, align 8, !tbaa !10
  %6 = icmp ne ptr %5, null
  br i1 %6, label %8, label %7

7:                                                ; preds = %0
  store ptr null, ptr %1, align 8
  store i32 1, ptr %3, align 4
  br label %38

8:                                                ; preds = %0
  %9 = load ptr, ptr %2, align 8, !tbaa !10
  %10 = getelementptr inbounds nuw %struct.ARKodeSPRKTableMem, ptr %9, i32 0, i32 0
  store i32 3, ptr %10, align 8, !tbaa !14
  %11 = load ptr, ptr %2, align 8, !tbaa !10
  %12 = getelementptr inbounds nuw %struct.ARKodeSPRKTableMem, ptr %11, i32 0, i32 1
  store i32 3, ptr %12, align 4, !tbaa !12
  %13 = load ptr, ptr %2, align 8, !tbaa !10
  %14 = getelementptr inbounds nuw %struct.ARKodeSPRKTableMem, ptr %13, i32 0, i32 2
  %15 = load ptr, ptr %14, align 8, !tbaa !17
  %16 = getelementptr inbounds double, ptr %15, i64 0
  store double 0x3FE5555555555555, ptr %16, align 8, !tbaa !15
  %17 = load ptr, ptr %2, align 8, !tbaa !10
  %18 = getelementptr inbounds nuw %struct.ARKodeSPRKTableMem, ptr %17, i32 0, i32 2
  %19 = load ptr, ptr %18, align 8, !tbaa !17
  %20 = getelementptr inbounds double, ptr %19, i64 1
  store double 0xBFE5555555555555, ptr %20, align 8, !tbaa !15
  %21 = load ptr, ptr %2, align 8, !tbaa !10
  %22 = getelementptr inbounds nuw %struct.ARKodeSPRKTableMem, ptr %21, i32 0, i32 2
  %23 = load ptr, ptr %22, align 8, !tbaa !17
  %24 = getelementptr inbounds double, ptr %23, i64 2
  store double 1.000000e+00, ptr %24, align 8, !tbaa !15
  %25 = load ptr, ptr %2, align 8, !tbaa !10
  %26 = getelementptr inbounds nuw %struct.ARKodeSPRKTableMem, ptr %25, i32 0, i32 3
  %27 = load ptr, ptr %26, align 8, !tbaa !18
  %28 = getelementptr inbounds double, ptr %27, i64 0
  store double 0x3FD2AAAAAAAAAAAB, ptr %28, align 8, !tbaa !15
  %29 = load ptr, ptr %2, align 8, !tbaa !10
  %30 = getelementptr inbounds nuw %struct.ARKodeSPRKTableMem, ptr %29, i32 0, i32 3
  %31 = load ptr, ptr %30, align 8, !tbaa !18
  %32 = getelementptr inbounds double, ptr %31, i64 1
  store double 7.500000e-01, ptr %32, align 8, !tbaa !15
  %33 = load ptr, ptr %2, align 8, !tbaa !10
  %34 = getelementptr inbounds nuw %struct.ARKodeSPRKTableMem, ptr %33, i32 0, i32 3
  %35 = load ptr, ptr %34, align 8, !tbaa !18
  %36 = getelementptr inbounds double, ptr %35, i64 2
  store double 0xBFA5555555555555, ptr %36, align 8, !tbaa !15
  %37 = load ptr, ptr %2, align 8, !tbaa !10
  store ptr %37, ptr %1, align 8
  store i32 1, ptr %3, align 4
  br label %38

38:                                               ; preds = %8, %7
  call void @llvm.lifetime.end.p0(i64 8, ptr %2) #8
  %39 = load ptr, ptr %1, align 8
  ret ptr %39
}